; Function Attrs: mustprogress nounwind uwtable
define internal noundef ptr @"_ZN4llvm12function_refIFPNS_15AssumptionCacheERNS_8FunctionEEE11callback_fnIZNS_17LoopExtractorPass3runERNS_6ModuleERNS_15AnalysisManagerIS9_JEEEE3$_2EES2_lS4_"(i64 noundef %0, ptr noundef nonnull align 8 dereferenceable(136) %1) #0 align 2 {
  %3 = inttoptr i64 %0 to ptr
  %.val = load ptr, ptr %3, align 8
  %4 = tail call noundef ptr @_ZNK4llvm15AnalysisManagerINS_8FunctionEJEE19getCachedResultImplEPNS_11AnalysisKeyERS1_(ptr noundef nonnull align 8 dereferenceable(72) %.val, ptr noundef nonnull @_ZN4llvm18AssumptionAnalysis3KeyE, ptr noundef nonnull align 8 dereferenceable(136) %1) #14
  %.not.i.i = icmp eq ptr %4, null
  %5 = getelementptr inbounds nuw i8, ptr %4, i64 8
  %.0.i.i = select i1 %.not.i.i, ptr null, ptr %5
  ret ptr %.0.i.i
}